---
triple:          'arm64-apple-darwin'
binary-path:     4_d_motif
relocations:
  - { offset: 0x5C, size: 0x8, addend: 0x0, symName: __ZNSt3__119piecewise_constructE, symObjAddr: 0x97D0, symBinAddr: 0x10000B497, symSize: 0x0 }
  - { offset: 0xA51E, size: 0x8, addend: 0x0, symName: __ZNSt3__124__put_character_sequenceB8ne180100IcNS_11char_traitsIcEEEERNS_13basic_ostreamIT_T0_EES7_PKS4_m, symObjAddr: 0xEE0, symBinAddr: 0x100002954, symSize: 0x164 }
  - { offset: 0x1ECFE, size: 0x8, addend: 0x0, symName: __ZNSt3__17getlineB8ne180100IcNS_11char_traitsIcEENS_9allocatorIcEEEERNS_13basic_istreamIT_T0_EES9_RNS_12basic_stringIS6_S7_T1_EES6_, symObjAddr: 0x1298, symBinAddr: 0x100002D0C, symSize: 0x184 }
  - { offset: 0x1EFFC, size: 0x8, addend: 0x0, symName: __ZNSt3__135__uninitialized_allocator_copy_implB8ne180100INS_9allocatorINS_6vectorIiNS1_IiEEEEEEPS4_S6_S6_EET2_RT_T0_T1_S7_, symObjAddr: 0x1648, symBinAddr: 0x1000030BC, symSize: 0xF8 }
  - { offset: 0x1F5B7, size: 0x8, addend: 0x0, symName: __ZNSt3__14endlB8ne180100IcNS_11char_traitsIcEEEERNS_13basic_ostreamIT_T0_EES7_, symObjAddr: 0xBE4, symBinAddr: 0x100002658, symSize: 0x8C }
  - { offset: 0x1F63B, size: 0x8, addend: 0x0, symName: __ZNSt3__116__pad_and_outputB8ne180100IcNS_11char_traitsIcEEEENS_19ostreambuf_iteratorIT_T0_EES6_PKS4_S8_S8_RNS_8ios_baseES4_, symObjAddr: 0x1044, symBinAddr: 0x100002AB8, symSize: 0x1A8 }
  - { offset: 0x1FE1C, size: 0x8, addend: 0x0, symName: __ZNSt3__120__throw_length_errorB8ne180100EPKc, symObjAddr: 0x1208, symBinAddr: 0x100002C7C, symSize: 0x4C }
  - { offset: 0x20258, size: 0x8, addend: 0x0, symName: __ZNSt3__127__tree_balance_after_insertB8ne180100IPNS_16__tree_node_baseIPvEEEEvT_S5_, symObjAddr: 0x222C, symBinAddr: 0x100003CA0, symSize: 0x198 }
  - { offset: 0x222F4, size: 0x8, addend: 0x0, symName: __ZSt28__throw_bad_array_new_lengthB8ne180100v, symObjAddr: 0x1274, symBinAddr: 0x100002CE8, symSize: 0x24 }
  - { offset: 0x25CA4, size: 0x8, addend: 0x0, symName: __Z9readGraphRKNSt3__112basic_stringIcNS_11char_traitsIcEENS_9allocatorIcEEEE, symObjAddr: 0x0, symBinAddr: 0x100001A74, symSize: 0xAC8 }
  - { offset: 0x28D0F, size: 0x8, addend: 0x0, symName: __ZNSt3__114basic_ifstreamIcNS_11char_traitsIcEEEC1ERKNS_12basic_stringIcS2_NS_9allocatorIcEEEEj, symObjAddr: 0xAC8, symBinAddr: 0x10000253C, symSize: 0x11C }
  - { offset: 0x28E63, size: 0x8, addend: 0x0, symName: __ZNSt3__119basic_istringstreamIcNS_11char_traitsIcEENS_9allocatorIcEEEC1B8ne180100ERKNS_12basic_stringIcS2_S4_EEj, symObjAddr: 0xC70, symBinAddr: 0x1000026E4, symSize: 0x12C }
  - { offset: 0x29032, size: 0x8, addend: 0x0, symName: __ZNSt3__16vectorINS0_IiNS_9allocatorIiEEEENS1_IS3_EEEC2EmRKS3_, symObjAddr: 0x142C, symBinAddr: 0x100002EA0, symSize: 0x17C }
  - { offset: 0x29702, size: 0x8, addend: 0x0, symName: __ZNSt3__112__tuple_implINS_15__tuple_indicesIJLm0ELm1EEEEJNS_6vectorINS3_IiNS_9allocatorIiEEEENS4_IS6_EEEES8_EEC2B8ne180100IJLm0ELm1EEJS8_S8_ETpTnmJEJEJRS8_SB_EEENS1_IJXspT_EEEENS_13__tuple_typesIJDpT0_EEENS1_IJXspT1_EEEENSD_IJDpT2_EEEDpOT3_, symObjAddr: 0x17A8, symBinAddr: 0x10000321C, symSize: 0x19C }
  - { offset: 0x29D60, size: 0x8, addend: 0x0, symName: __ZNKSt3__16vectorIiNS_9allocatorIiEEE20__throw_length_errorB8ne180100Ev, symObjAddr: 0x141C, symBinAddr: 0x100002E90, symSize: 0x10 }
  - { offset: 0x29D8A, size: 0x8, addend: 0x0, symName: __ZNSt3__16vectorINS0_IiNS_9allocatorIiEEEENS1_IS3_EEEC2EmRKS3_, symObjAddr: 0x142C, symBinAddr: 0x100002EA0, symSize: 0x17C }
  - { offset: 0x29DA3, size: 0x8, addend: 0x0, symName: __ZNKSt3__16vectorINS0_IiNS_9allocatorIiEEEENS1_IS3_EEE20__throw_length_errorB8ne180100Ev, symObjAddr: 0x1638, symBinAddr: 0x1000030AC, symSize: 0x10 }
  - { offset: 0x29DCD, size: 0x8, addend: 0x0, symName: __ZNSt3__135__uninitialized_allocator_copy_implB8ne180100INS_9allocatorINS_6vectorIiNS1_IiEEEEEEPS4_S6_S6_EET2_RT_T0_T1_S7_, symObjAddr: 0x1648, symBinAddr: 0x1000030BC, symSize: 0xF8 }
  - { offset: 0x29DD8, size: 0x8, addend: 0x0, symName: __ZNSt3__114basic_ifstreamIcNS_11char_traitsIcEEED1Ev, symObjAddr: 0xE8C, symBinAddr: 0x100002900, symSize: 0x54 }
  - { offset: 0x29E20, size: 0x8, addend: 0x0, symName: __ZNSt3__128__exception_guard_exceptionsINS_6vectorINS1_IiNS_9allocatorIiEEEENS2_IS4_EEE16__destroy_vectorEED1B8ne180100Ev, symObjAddr: 0x15A8, symBinAddr: 0x10000301C, symSize: 0x90 }
  - { offset: 0x2A0CE, size: 0x8, addend: 0x0, symName: __ZNSt3__16vectorINS0_IiNS_9allocatorIiEEEENS1_IS3_EEED1B8ne180100Ev, symObjAddr: 0xD9C, symBinAddr: 0x100002810, symSize: 0x70 }
  - { offset: 0x2A37B, size: 0x8, addend: 0x0, symName: __ZNSt3__119basic_istringstreamIcNS_11char_traitsIcEENS_9allocatorIcEEED1Ev, symObjAddr: 0xE0C, symBinAddr: 0x100002880, symSize: 0x80 }
  - { offset: 0x2A953, size: 0x8, addend: 0x0, symName: __ZNKSt3__112basic_stringIcNS_11char_traitsIcEENS_9allocatorIcEEE20__throw_length_errorB8ne180100Ev, symObjAddr: 0x11F8, symBinAddr: 0x100002C6C, symSize: 0x10 }
  - { offset: 0x2A97D, size: 0x8, addend: 0x0, symName: __ZNSt3__120__throw_length_errorB8ne180100EPKc, symObjAddr: 0x1208, symBinAddr: 0x100002C7C, symSize: 0x4C }
  - { offset: 0x2A988, size: 0x8, addend: 0x0, symName: __ZNSt12length_errorC1B8ne180100EPKc, symObjAddr: 0x1254, symBinAddr: 0x100002CC8, symSize: 0x20 }
  - { offset: 0x2AC9A, size: 0x8, addend: 0x0, symName: __ZNSt3__128__exception_guard_exceptionsINS_29_AllocatorDestroyRangeReverseINS_9allocatorINS_6vectorIiNS2_IiEEEEEEPS5_EEED1B8ne180100Ev, symObjAddr: 0x1740, symBinAddr: 0x1000031B4, symSize: 0x68 }
  - { offset: 0x2AF1F, size: 0x8, addend: 0x0, symName: __ZNSt3__112__tuple_leafILm0ENS_6vectorINS1_IiNS_9allocatorIiEEEENS2_IS4_EEEELb0EED2Ev, symObjAddr: 0x1944, symBinAddr: 0x1000033B8, symSize: 0x70 }
  - { offset: 0x2BD97, size: 0x8, addend: 0x0, symName: __Z25GenerateSubgraphsFromEdgeiiRKNSt3__16vectorINS_13unordered_setIiNS_4hashIiEENS_8equal_toIiEENS_9allocatorIiEEEENS6_IS8_EEEERKNS0_INS0_IiS7_EENS6_ISD_EEEERNS0_INS_3setIiNS_4lessIiEES7_EENS6_ISL_EEEE, symObjAddr: 0x19B4, symBinAddr: 0x100003428, symSize: 0x878 }
  - { offset: 0x2D6DC, size: 0x8, addend: 0x0, symName: __ZNSt3__16__treeIiNS_4lessIiEENS_9allocatorIiEEE7destroyEPNS_11__tree_nodeIiPvEE, symObjAddr: 0x23D4, symBinAddr: 0x100003E48, symSize: 0x40 }
  - { offset: 0x2D810, size: 0x8, addend: 0x0, symName: __ZNKSt3__16vectorINS_3setIiNS_4lessIiEENS_9allocatorIiEEEENS4_IS6_EEE20__throw_length_errorB8ne180100Ev, symObjAddr: 0x23C4, symBinAddr: 0x100003E38, symSize: 0x10 }
  - { offset: 0x2D83A, size: 0x8, addend: 0x0, symName: __ZNSt3__16__treeIiNS_4lessIiEENS_9allocatorIiEEE7destroyEPNS_11__tree_nodeIiPvEE, symObjAddr: 0x23D4, symBinAddr: 0x100003E48, symSize: 0x40 }
  - { offset: 0x2F4E5, size: 0x8, addend: 0x0, symName: __Z11countMotifsNSt3__16vectorINS0_IiNS_9allocatorIiEEEENS1_IS3_EEEERKS5_, symObjAddr: 0x2414, symBinAddr: 0x100003E88, symSize: 0x152C }
  - { offset: 0x357BF, size: 0x8, addend: 0x0, symName: __ZNSt3__112__hash_tableIiNS_4hashIiEENS_8equal_toIiEENS_9allocatorIiEEE25__emplace_unique_key_argsIiJRKiEEENS_4pairINS_15__hash_iteratorIPNS_11__hash_nodeIiPvEEEEbEERKT_DpOT0_, symObjAddr: 0x73F4, symBinAddr: 0x100008E68, symSize: 0x31C }
  - { offset: 0x35E47, size: 0x8, addend: 0x0, symName: __ZNSt3__16__treeINS_12__value_typeINS_12basic_stringIcNS_11char_traitsIcEENS_9allocatorIcEEEExEENS_19__map_value_compareIS7_S8_NS_4lessIS7_EELb1EEENS5_IS8_EEE30__emplace_hint_unique_key_argsIS7_JRKNS_4pairIKS7_xEEEEENSG_INS_15__tree_iteratorIS8_PNS_11__tree_nodeIS8_PvEElEEbEENS_21__tree_const_iteratorIS8_SP_lEERKT_DpOT0_, symObjAddr: 0x78F4, symBinAddr: 0x100009368, symSize: 0x10C }
  - { offset: 0x361CC, size: 0x8, addend: 0x0, symName: __ZNSt3__16vectorINS_3mapINS_12basic_stringIcNS_11char_traitsIcEENS_9allocatorIcEEEExNS_4lessIS7_EENS5_INS_4pairIKS7_xEEEEEENS5_ISE_EEE18__construct_at_endEmRKSE_, symObjAddr: 0x7F38, symBinAddr: 0x1000099AC, symSize: 0x364 }
  - { offset: 0x36BFF, size: 0x8, addend: 0x0, symName: __ZNSt3__112basic_stringIcNS_11char_traitsIcEENS_9allocatorIcEEE25__init_copy_ctor_externalEPKcm, symObjAddr: 0x7E4C, symBinAddr: 0x1000098C0, symSize: 0x90 }
  - { offset: 0x36EC4, size: 0x8, addend: 0x0, symName: __ZNSt3__16__treeINS_12__value_typeINS_12basic_stringIcNS_11char_traitsIcEENS_9allocatorIcEEEExEENS_19__map_value_compareIS7_S8_NS_4lessIS7_EELb1EEENS5_IS8_EEE7destroyEPNS_11__tree_nodeIS8_PvEE, symObjAddr: 0x7EDC, symBinAddr: 0x100009950, symSize: 0x5C }
  - { offset: 0x36ED6, size: 0x8, addend: 0x0, symName: __ZNSt3__16__treeINS_12__value_typeINS_12basic_stringIcNS_11char_traitsIcEENS_9allocatorIcEEEExEENS_19__map_value_compareIS7_S8_NS_4lessIS7_EELb1EEENS5_IS8_EEE7destroyEPNS_11__tree_nodeIS8_PvEE, symObjAddr: 0x7EDC, symBinAddr: 0x100009950, symSize: 0x5C }
  - { offset: 0x37151, size: 0x8, addend: 0x0, symName: __ZNKSt3__16vectorINS_4pairIiiEENS_9allocatorIS2_EEE20__throw_length_errorB8ne180100Ev, symObjAddr: 0x78E4, symBinAddr: 0x100009358, symSize: 0x10 }
  - { offset: 0x3717B, size: 0x8, addend: 0x0, symName: __ZNSt3__16__treeINS_12__value_typeINS_12basic_stringIcNS_11char_traitsIcEENS_9allocatorIcEEEExEENS_19__map_value_compareIS7_S8_NS_4lessIS7_EELb1EEENS5_IS8_EEE30__emplace_hint_unique_key_argsIS7_JRKNS_4pairIKS7_xEEEEENSG_INS_15__tree_iteratorIS8_PNS_11__tree_nodeIS8_PvEElEEbEENS_21__tree_const_iteratorIS8_SP_lEERKT_DpOT0_, symObjAddr: 0x78F4, symBinAddr: 0x100009368, symSize: 0x10C }
  - { offset: 0x37186, size: 0x8, addend: 0x0, symName: __ZNKSt3__16vectorINS_13unordered_setIiNS_4hashIiEENS_8equal_toIiEENS_9allocatorIiEEEENS6_IS8_EEE20__throw_length_errorB8ne180100Ev, symObjAddr: 0x73E4, symBinAddr: 0x100008E58, symSize: 0x10 }
  - { offset: 0x371B0, size: 0x8, addend: 0x0, symName: __ZNSt3__112__hash_tableIiNS_4hashIiEENS_8equal_toIiEENS_9allocatorIiEEE25__emplace_unique_key_argsIiJRKiEEENS_4pairINS_15__hash_iteratorIPNS_11__hash_nodeIiPvEEEEbEERKT_DpOT0_, symObjAddr: 0x73F4, symBinAddr: 0x100008E68, symSize: 0x31C }
  - { offset: 0x371BB, size: 0x8, addend: 0x0, symName: __ZNKSt3__16vectorINS_3mapINS_12basic_stringIcNS_11char_traitsIcEENS_9allocatorIcEEEExNS_4lessIS7_EENS5_INS_4pairIKS7_xEEEEEENS5_ISE_EEE20__throw_length_errorB8ne180100Ev, symObjAddr: 0x8310, symBinAddr: 0x100009D84, symSize: 0x10 }
  - { offset: 0x371E5, size: 0x8, addend: 0x0, symName: __ZNSt3__16__treeINS_12__value_typeINS_12basic_stringIcNS_11char_traitsIcEENS_9allocatorIcEEEExEENS_19__map_value_compareIS7_S8_NS_4lessIS7_EELb1EEENS5_IS8_EEE25__emplace_unique_key_argsIS7_JRKNS_21piecewise_construct_tENS_5tupleIJOS7_EEENSJ_IJEEEEEENS_4pairINS_15__tree_iteratorIS8_PNS_11__tree_nodeIS8_PvEElEEbEERKT_DpOT0_, symObjAddr: 0x8320, symBinAddr: 0x100009D94, symSize: 0x174 }
  - { offset: 0x371F0, size: 0x8, addend: 0x0, symName: __ZNSt3__128__exception_guard_exceptionsINS_6vectorINS_13unordered_setIiNS_4hashIiEENS_8equal_toIiEENS_9allocatorIiEEEENS7_IS9_EEE16__destroy_vectorEED1B8ne180100Ev, symObjAddr: 0x7358, symBinAddr: 0x100008DCC, symSize: 0x8C }
  - { offset: 0x37661, size: 0x8, addend: 0x0, symName: __ZNSt3__128__exception_guard_exceptionsINS_6vectorINS_3mapINS_12basic_stringIcNS_11char_traitsIcEENS_9allocatorIcEEEExNS_4lessIS8_EENS6_INS_4pairIKS8_xEEEEEENS6_ISF_EEE16__destroy_vectorEED1B8ne180100Ev, symObjAddr: 0x829C, symBinAddr: 0x100009D10, symSize: 0x74 }
  - { offset: 0x378AA, size: 0x8, addend: 0x0, symName: __ZNSt3__110unique_ptrINS_11__tree_nodeINS_12__value_typeINS_12basic_stringIcNS_11char_traitsIcEENS_9allocatorIcEEEExEEPvEENS_22__tree_node_destructorINS6_ISB_EEEEED1B8ne180100Ev, symObjAddr: 0x7DF4, symBinAddr: 0x100009868, symSize: 0x58 }
  - { offset: 0x37BB0, size: 0x8, addend: 0x0, symName: __ZNSt3__16vectorINS_3mapINS_12basic_stringIcNS_11char_traitsIcEENS_9allocatorIcEEEExNS_4lessIS7_EENS5_INS_4pairIKS7_xEEEEEENS5_ISE_EEED1B8ne180100Ev, symObjAddr: 0x7274, symBinAddr: 0x100008CE8, symSize: 0x64 }
  - { offset: 0x37DEC, size: 0x8, addend: 0x0, symName: __ZNSt3__16vectorINS_13unordered_setIiNS_4hashIiEENS_8equal_toIiEENS_9allocatorIiEEEENS6_IS8_EEED1B8ne180100Ev, symObjAddr: 0x72D8, symBinAddr: 0x100008D4C, symSize: 0x80 }
  - { offset: 0x38921, size: 0x8, addend: 0x0, symName: __Z11countMotifsNSt3__16vectorINS0_IiNS_9allocatorIiEEEENS1_IS3_EEEERKS5_.omp_outlined, symObjAddr: 0x3940, symBinAddr: 0x1000053B4, symSize: 0x3934 }
  - { offset: 0x48B15, size: 0x8, addend: 0x0, symName: __ZNSt3__16__treeINS_12__value_typeINS_12basic_stringIcNS_11char_traitsIcEENS_9allocatorIcEEEExEENS_19__map_value_compareIS7_S8_NS_4lessIS7_EELb1EEENS5_IS8_EEE25__emplace_unique_key_argsIS7_JRKNS_21piecewise_construct_tENS_5tupleIJOS7_EEENSJ_IJEEEEEENS_4pairINS_15__tree_iteratorIS8_PNS_11__tree_nodeIS8_PvEElEEbEERKT_DpOT0_, symObjAddr: 0x8320, symBinAddr: 0x100009D94, symSize: 0x174 }
  - { offset: 0x493D7, size: 0x8, addend: 0x0, symName: __ZNSt3__112__hash_tableIiNS_4hashIiEENS_8equal_toIiEENS_9allocatorIiEEE11__do_rehashILb1EEEvm, symObjAddr: 0x7710, symBinAddr: 0x100009184, symSize: 0x1D4 }
  - { offset: 0x4982F, size: 0x8, addend: 0x0, symName: __ZNKSt3__16vectorINS_4pairIiiEENS_9allocatorIS2_EEE20__throw_length_errorB8ne180100Ev, symObjAddr: 0x78E4, symBinAddr: 0x100009358, symSize: 0x10 }
  - { offset: 0x499E2, size: 0x8, addend: 0x0, symName: __ZNSt3__16__treeINS_12__value_typeINS_12basic_stringIcNS_11char_traitsIcEENS_9allocatorIcEEEExEENS_19__map_value_compareIS7_S8_NS_4lessIS7_EELb1EEENS5_IS8_EEE12__find_equalIS7_EERPNS_16__tree_node_baseIPvEENS_21__tree_const_iteratorIS8_PNS_11__tree_nodeIS8_SH_EElEERPNS_15__tree_end_nodeISJ_EESK_RKT_, symObjAddr: 0x7A00, symBinAddr: 0x100009474, symSize: 0x3F4 }
  - { offset: 0x4AD81, size: 0x8, addend: 0x0, symName: __Z14printAdjMatrixNSt3__16vectorINS0_IiNS_9allocatorIiEEEENS1_IS3_EEEE, symObjAddr: 0x8494, symBinAddr: 0x100009F08, symSize: 0x12C }
  - { offset: 0x4AF39, size: 0x8, addend: 0x0, symName: __Z15printDistMatrixNSt3__16vectorINS0_IiNS_9allocatorIiEEEENS1_IS3_EEEE, symObjAddr: 0x85C0, symBinAddr: 0x10000A034, symSize: 0x12C }
  - { offset: 0x4B273, size: 0x8, addend: 0x0, symName: _main, symObjAddr: 0x86EC, symBinAddr: 0x10000A160, symSize: 0xA10 }
  - { offset: 0x4E10C, size: 0x8, addend: 0x0, symName: __ZNSt3__15tupleIJNS_6vectorINS1_IiNS_9allocatorIiEEEENS2_IS4_EEEES6_EED1Ev, symObjAddr: 0x90FC, symBinAddr: 0x10000AB70, symSize: 0xBC }
...
